BL51 BANKED LINKER/LOCATER V6.22.2.0                                                    07/02/2022  11:25:29  PAGE 1


BL51 BANKED LINKER/LOCATER V6.22.2.0, INVOKED BY:
C:\KEIL_V5\C51\BIN\BL51.EXE .\Objects\Repentina.obj TO .\Objects\Repentina PRINT (.\Listings\Repentina.m51) RAMSIZE (256
>> )


INPUT MODULES INCLUDED:
  .\Objects\Repentina.obj (REPENTINA)


LINK MAP OF MODULE:  .\Objects\Repentina (REPENTINA)


            TYPE    BASE      LENGTH    RELOCATION   SEGMENT NAME
            -----------------------------------------------------

            * * * * * * *   D A T A   M E M O R Y   * * * * * * *
            REG     0000H     0008H     ABSOLUTE     "REG BANK 0"

            * * * * * * *   C O D E   M E M O R Y   * * * * * * *
            CODE    0000H     040AH     ABSOLUTE     



SYMBOL TABLE OF MODULE:  .\Objects\Repentina (REPENTINA)

  VALUE           TYPE          NAME
  ----------------------------------

  -------         MODULE        REPENTINA
  C:012DH         SYMBOL        ADD_HR
  C:00E7H         SYMBOL        ADD_HR_A
  C:0161H         SYMBOL        ADD_HR_SC
  C:0139H         SYMBOL        ADD_MIN
  C:00F3H         SYMBOL        ADD_SEC
  C:008AH         SYMBOL        ALARM_LOOP
  C:0239H         SYMBOL        ALARM_MOD
  C:00A2H         SYMBOL        ALARM_OFF
  C:00B7H         SYMBOL        ALARM_VERIFY
  C:0237H         SYMBOL        CLOCK_MOD
  C:016DH         SYMBOL        DISP_SHOW
  C:018CH         SYMBOL        DSP1
  C:017EH         SYMBOL        DSP1_A
  C:01ABH         SYMBOL        DSP2
  C:019DH         SYMBOL        DSP2_A
  C:01CAH         SYMBOL        DSP3
  C:01BCH         SYMBOL        DSP3_A
  C:01E9H         SYMBOL        DSP4
  C:01DBH         SYMBOL        DSP4_A
  C:0208H         SYMBOL        DSP5
  C:01FAH         SYMBOL        DSP5_A
  C:0229H         SYMBOL        DSP6
  C:0219H         SYMBOL        DSP6_A
  C:00B4H         SYMBOL        END_SEG
  N:0054H         SYMBOL        HORS0
  N:0064H         SYMBOL        HORS0_A
  N:0055H         SYMBOL        HORS1
  N:0065H         SYMBOL        HORS1_A
  D:00A8H         SYMBOL        IE
BL51 BANKED LINKER/LOCATER V6.22.2.0                                                  07/02/2022  11:25:29  PAGE 2


  C:0040H         SYMBOL        MAIN
  N:3CB0H         SYMBOL        MIL15
  N:FC18H         SYMBOL        MIL60
  N:0052H         SYMBOL        MINS0
  N:0062H         SYMBOL        MINS0_A
  N:0053H         SYMBOL        MINS1
  N:0063H         SYMBOL        MINS1_A
  C:0171H         SYMBOL        MUX
  D:0080H         SYMBOL        P0
  D:0090H         SYMBOL        P1
  D:00A0H         SYMBOL        P2
  D:00B0H         SYMBOL        P3
  C:00B6H         SYMBOL        RETURN
  C:00DFH         SYMBOL        SEC_ADD
  C:00A6H         SYMBOL        SEC_VER
  N:0050H         SYMBOL        SEGS0
  N:0060H         SYMBOL        SEGS0_A
  N:0051H         SYMBOL        SEGS1
  N:0061H         SYMBOL        SEGS1_A
  D:008CH         SYMBOL        TH0
  D:008DH         SYMBOL        TH1
  D:008AH         SYMBOL        TL0
  D:008BH         SYMBOL        TL1
  D:0089H         SYMBOL        TMOD
  B:0088H.4       SYMBOL        TR0
  B:0088H.6       SYMBOL        TR1
  C:0000H         LINE#         53
  C:000BH         LINE#         57
  C:001BH         LINE#         61
  C:0040H         LINE#         66
  C:0043H         LINE#         67
  C:0045H         LINE#         68
  C:0048H         LINE#         69
  C:004BH         LINE#         72
  C:004DH         LINE#         73
  C:004FH         LINE#         76
  C:0052H         LINE#         77
  C:0055H         LINE#         78
  C:0058H         LINE#         79
  C:005BH         LINE#         80
  C:005EH         LINE#         81
  C:0061H         LINE#         84
  C:0064H         LINE#         85
  C:0067H         LINE#         86
  C:006AH         LINE#         87
  C:006DH         LINE#         88
  C:0070H         LINE#         89
  C:0073H         LINE#         91
  C:0076H         LINE#         93
  C:0079H         LINE#         94
  C:007CH         LINE#         95
  C:007EH         LINE#         97
  C:0081H         LINE#         98
  C:0084H         LINE#         99
  C:0086H         LINE#         102
  C:0088H         LINE#         103
  C:008AH         LINE#         106
BL51 BANKED LINKER/LOCATER V6.22.2.0                                                  07/02/2022  11:25:29  PAGE 3


  C:008CH         LINE#         107
  C:008FH         LINE#         108
  C:0091H         LINE#         109
  C:0094H         LINE#         110
  C:0096H         LINE#         111
  C:0099H         LINE#         112
  C:009BH         LINE#         113
  C:009EH         LINE#         116
  C:00A0H         LINE#         117
  C:00A2H         LINE#         120
  C:00A4H         LINE#         121
  C:00A6H         LINE#         124
  C:00A8H         LINE#         125
  C:00ABH         LINE#         126
  C:00AEH         LINE#         127
  C:00B0H         LINE#         128
  C:00B2H         LINE#         129
  C:00B4H         LINE#         131
  C:00B6H         LINE#         133
  C:00B7H         LINE#         135
  C:00B9H         LINE#         136
  C:00BBH         LINE#         137
  C:00BEH         LINE#         139
  C:00C1H         LINE#         140
  C:00C3H         LINE#         141
  C:00C5H         LINE#         142
  C:00C8H         LINE#         144
  C:00CBH         LINE#         145
  C:00CDH         LINE#         146
  C:00CFH         LINE#         147
  C:00D2H         LINE#         149
  C:00D4H         LINE#         150
  C:00D7H         LINE#         152
  C:00DAH         LINE#         153
  C:00DDH         LINE#         154
  C:00DFH         LINE#         157
  C:00E2H         LINE#         158
  C:00E5H         LINE#         159
  C:00E7H         LINE#         162
  C:00E9H         LINE#         163
  C:00ECH         LINE#         164
  C:00EFH         LINE#         165
  C:00F1H         LINE#         166
  C:00F3H         LINE#         169
  C:00F5H         LINE#         170
  C:00F7H         LINE#         171
  C:00FAH         LINE#         172
  C:00FDH         LINE#         174
  C:00FFH         LINE#         175
  C:0101H         LINE#         176
  C:0104H         LINE#         177
  C:0107H         LINE#         179
  C:0109H         LINE#         180
  C:010BH         LINE#         181
  C:010EH         LINE#         182
  C:0111H         LINE#         184
  C:0113H         LINE#         185
BL51 BANKED LINKER/LOCATER V6.22.2.0                                                  07/02/2022  11:25:29  PAGE 4


  C:0115H         LINE#         186
  C:0118H         LINE#         187
  C:011BH         LINE#         189
  C:011DH         LINE#         190
  C:011FH         LINE#         191
  C:0122H         LINE#         193
  C:0124H         LINE#         194
  C:0127H         LINE#         195
  C:012AH         LINE#         196
  C:012DH         LINE#         199
  C:012FH         LINE#         200
  C:0132H         LINE#         201
  C:0135H         LINE#         202
  C:0137H         LINE#         203
  C:0139H         LINE#         206
  C:013BH         LINE#         207
  C:013DH         LINE#         208
  C:0140H         LINE#         210
  C:0143H         LINE#         211
  C:0145H         LINE#         212
  C:0147H         LINE#         213
  C:014AH         LINE#         215
  C:014DH         LINE#         216
  C:014FH         LINE#         217
  C:0151H         LINE#         218
  C:0154H         LINE#         220
  C:0156H         LINE#         221
  C:0159H         LINE#         223
  C:015CH         LINE#         224
  C:015FH         LINE#         225
  C:0161H         LINE#         228
  C:0163H         LINE#         229
  C:0166H         LINE#         230
  C:0169H         LINE#         231
  C:016BH         LINE#         232
  C:016DH         LINE#         242
  C:016EH         LINE#         243
  C:0170H         LINE#         244
  C:0171H         LINE#         246
  C:0173H         LINE#         247
  C:0176H         LINE#         248
  C:0179H         LINE#         249
  C:017BH         LINE#         250
  C:017EH         LINE#         252
  C:0180H         LINE#         253
  C:0183H         LINE#         254
  C:0185H         LINE#         255
  C:0187H         LINE#         256
  C:018AH         LINE#         257
  C:018CH         LINE#         259
  C:018EH         LINE#         260
  C:0191H         LINE#         261
  C:0193H         LINE#         262
  C:0195H         LINE#         263
  C:0198H         LINE#         264
  C:019AH         LINE#         265
  C:019DH         LINE#         267
BL51 BANKED LINKER/LOCATER V6.22.2.0                                                  07/02/2022  11:25:29  PAGE 5


  C:019FH         LINE#         268
  C:01A2H         LINE#         269
  C:01A4H         LINE#         270
  C:01A6H         LINE#         271
  C:01A9H         LINE#         272
  C:01ABH         LINE#         274
  C:01ADH         LINE#         275
  C:01B0H         LINE#         276
  C:01B2H         LINE#         277
  C:01B4H         LINE#         278
  C:01B7H         LINE#         279
  C:01B9H         LINE#         280
  C:01BCH         LINE#         282
  C:01BEH         LINE#         283
  C:01C1H         LINE#         284
  C:01C3H         LINE#         285
  C:01C5H         LINE#         286
  C:01C8H         LINE#         287
  C:01CAH         LINE#         289
  C:01CCH         LINE#         290
  C:01CFH         LINE#         291
  C:01D1H         LINE#         292
  C:01D3H         LINE#         293
  C:01D6H         LINE#         294
  C:01D8H         LINE#         295
  C:01DBH         LINE#         297
  C:01DDH         LINE#         298
  C:01E0H         LINE#         299
  C:01E2H         LINE#         300
  C:01E4H         LINE#         301
  C:01E7H         LINE#         302
  C:01E9H         LINE#         304
  C:01EBH         LINE#         305
  C:01EEH         LINE#         306
  C:01F0H         LINE#         307
  C:01F2H         LINE#         308
  C:01F5H         LINE#         309
  C:01F7H         LINE#         310
  C:01FAH         LINE#         312
  C:01FCH         LINE#         313
  C:01FFH         LINE#         314
  C:0201H         LINE#         315
  C:0203H         LINE#         316
  C:0206H         LINE#         317
  C:0208H         LINE#         319
  C:020AH         LINE#         320
  C:020DH         LINE#         321
  C:020FH         LINE#         322
  C:0211H         LINE#         323
  C:0214H         LINE#         324
  C:0216H         LINE#         325
  C:0219H         LINE#         327
  C:021BH         LINE#         328
  C:021EH         LINE#         329
  C:0220H         LINE#         330
  C:0222H         LINE#         331
  C:0225H         LINE#         332
BL51 BANKED LINKER/LOCATER V6.22.2.0                                                  07/02/2022  11:25:29  PAGE 6


  C:0227H         LINE#         333
  C:0229H         LINE#         335
  C:022BH         LINE#         336
  C:022EH         LINE#         337
  C:0230H         LINE#         338
  C:0232H         LINE#         339
  C:0235H         LINE#         340
  C:0237H         LINE#         342
  C:0238H         LINE#         343
  C:0239H         LINE#         345
  C:023AH         LINE#         346
  -------         ENDMOD        REPENTINA

******************************************************************************
* RESTRICTED VERSION WITH 0800H BYTE CODE SIZE LIMIT; USED: 020BH BYTE (25%) *
******************************************************************************

Program Size: data=8.0 xdata=0 code=1034
LINK/LOCATE RUN COMPLETE.  0 WARNING(S),  0 ERROR(S)
